target datalayout = "e-m:e-p270:32:32-p271:32:32-p272:64:64-i64:64-i128:128-f80:128-n8:16:32:64-S128"
target triple = "x86_64-pc-linux-gnu"

@process_started = dso_local global i64 0, align 8
@current_time = dso_local global i32 0, align 4

; Function Attrs: nounwind uwtable
define dso_local i32 @realtime(i64 noundef %0) #0 {
  %2 = alloca i32, align 4
  %3 = alloca i64, align 8
  store i64 %0, ptr %3, align 8, !tbaa !4
  %4 = load i64, ptr %3, align 8, !tbaa !4
  %5 = icmp eq i64 %4, 0
  br i1 %5, label %6, label %7

6:                                                ; preds = %1
  store i32 0, ptr %2, align 4
  br label %26

7:                                                ; preds = %1
  %8 = load i64, ptr %3, align 8, !tbaa !4
  %9 = icmp sgt i64 %8, 2592000
  br i1 %9, label %10, label %20

10:                                               ; preds = %7
  %11 = load i64, ptr %3, align 8, !tbaa !4
  %12 = load i64, ptr @process_started, align 8, !tbaa !4
  %13 = icmp sle i64 %11, %12
  br i1 %13, label %14, label %15

14:                                               ; preds = %10
  store i32 1, ptr %2, align 4
  br label %26

15:                                               ; preds = %10
  %16 = load i64, ptr %3, align 8, !tbaa !4
  %17 = load i64, ptr @process_started, align 8, !tbaa !4
  %18 = sub nsw i64 %16, %17
  %19 = trunc i64 %18 to i32
  store i32 %19, ptr %2, align 4
  br label %26

20:                                               ; preds = %7
  %21 = load i64, ptr %3, align 8, !tbaa !4
  %22 = load volatile i32, ptr @current_time, align 4, !tbaa !8
  %23 = zext i32 %22 to i64
  %24 = add nsw i64 %21, %23
  %25 = trunc i64 %24 to i32
  store i32 %25, ptr %2, align 4
  br label %26

26:                                               ; preds = %20, %15, %14, %6
  %27 = load i32, ptr %2, align 4
  ret i32 %27
}