; Function Attrs: mustprogress nofree norecurse nounwind willreturn memory(readwrite, argmem: none) uwtable
define dso_local i32 @realtime(i64 noundef %0) local_unnamed_addr #0 {
  %2 = icmp eq i64 %0, 0
  br i1 %2, label %14, label %3

3:                                                ; preds = %1
  %4 = icmp sgt i64 %0, 2592000
  br i1 %4, label %5, label %10

5:                                                ; preds = %3
  %6 = load i64, ptr @process_started, align 8, !tbaa !4
  %.not = icmp sgt i64 %0, %6
  br i1 %.not, label %7, label %14

7:                                                ; preds = %5
  %8 = sub nsw i64 %0, %6
  %9 = trunc i64 %8 to i32
  br label %14

10:                                               ; preds = %3
  %11 = load volatile i32, ptr @current_time, align 4, !tbaa !8
  %12 = trunc i64 %0 to i32
  %13 = add i32 %11, %12
  br label %14

14:                                               ; preds = %5, %1, %10, %7
  %.0 = phi i32 [ %9, %7 ], [ %13, %10 ], [ 0, %1 ], [ 1, %5 ]
  ret i32 %.0
}